target datalayout = "e-m:e-p270:32:32-p271:32:32-p272:64:64-i64:64-i128:128-f80:128-n8:16:32:64-S128"
target triple = "x86_64-pc-linux-gnu"

%struct.Proto = type { ptr, i8, i8, ptr, ptr, ptr, ptr, ptr, ptr, ptr, i32, i32, i32, i32, i32, i32, i32, i32, ptr, i8, i8, i8, i8 }
%struct.LexState = type { i32, i32, i32, %struct.Token, %struct.Token, ptr, ptr, ptr, ptr, ptr, i8 }
%struct.Token = type { i32, %union.SemInfo }
%union.SemInfo = type { double }
%struct.FuncState = type { ptr, ptr, ptr, ptr, ptr, ptr, i32, i32, i32, i32, i32, i32, i16, i8, [60 x %struct.upvaldesc], [200 x i16] }
%struct.upvaldesc = type { i8, i8 }
%struct.expdesc = type { i32, %union.anon.3, i32, i32 }
%union.anon.3 = type { double }
%struct.anon.4 = type { i32, i32 }

@luaP_opmodes = internal constant [38 x i8] c"`qT`Pql1\10<Tl||||||```h\22\BC\BC\BC\E4\E4TT\10bb\84\14\00QP", align 16
@.str.150 = private unnamed_addr constant [27 x i8] c"control structure too long\00", align 1

; Function Attrs: nounwind uwtable
define internal void @luaX_syntaxerror(ptr noundef %0, ptr noundef %1) #0 {
  %3 = alloca ptr, align 8
  %4 = alloca ptr, align 8
  store ptr %0, ptr %3, align 8, !tbaa !327
  store ptr %1, ptr %4, align 8, !tbaa !13
  %5 = load ptr, ptr %3, align 8, !tbaa !327
  %6 = load ptr, ptr %4, align 8, !tbaa !13
  %7 = load ptr, ptr %3, align 8, !tbaa !327
  %8 = getelementptr inbounds nuw %struct.LexState, ptr %7, i32 0, i32 3
  %9 = getelementptr inbounds nuw %struct.Token, ptr %8, i32 0, i32 0
  %10 = load i32, ptr %9, align 8, !tbaa !352
  call void @luaX_lexerror(ptr noundef %5, ptr noundef %6, i32 noundef %10)
  ret void
}

; Function Attrs: nounwind uwtable
define internal i32 @luaK_getlabel(ptr noundef %0) #0 {
  %2 = alloca ptr, align 8
  store ptr %0, ptr %2, align 8, !tbaa !337
  %3 = load ptr, ptr %2, align 8, !tbaa !337
  %4 = getelementptr inbounds nuw %struct.FuncState, ptr %3, i32 0, i32 6
  %5 = load i32, ptr %4, align 8, !tbaa !341
  %6 = load ptr, ptr %2, align 8, !tbaa !337
  %7 = getelementptr inbounds nuw %struct.FuncState, ptr %6, i32 0, i32 7
  store i32 %5, ptr %7, align 4, !tbaa !342
  %8 = load ptr, ptr %2, align 8, !tbaa !337
  %9 = getelementptr inbounds nuw %struct.FuncState, ptr %8, i32 0, i32 6
  %10 = load i32, ptr %9, align 8, !tbaa !341
  ret i32 %10
}

; Function Attrs: nounwind uwtable
define internal void @fixjump(ptr noundef %0, i32 noundef %1, i32 noundef %2) #0 {
  %4 = alloca ptr, align 8
  %5 = alloca i32, align 4
  %6 = alloca i32, align 4
  %7 = alloca ptr, align 8
  %8 = alloca i32, align 4
  store ptr %0, ptr %4, align 8, !tbaa !337
  store i32 %1, ptr %5, align 4, !tbaa !4
  store i32 %2, ptr %6, align 4, !tbaa !4
  call void @llvm.lifetime.start.p0(i64 8, ptr %7) #14
  %9 = load ptr, ptr %4, align 8, !tbaa !337
  %10 = getelementptr inbounds nuw %struct.FuncState, ptr %9, i32 0, i32 0
  %11 = load ptr, ptr %10, align 8, !tbaa !323
  %12 = getelementptr inbounds nuw %struct.Proto, ptr %11, i32 0, i32 4
  %13 = load ptr, ptr %12, align 8, !tbaa !158
  %14 = load i32, ptr %5, align 4, !tbaa !4
  %15 = sext i32 %14 to i64
  %16 = getelementptr inbounds i32, ptr %13, i64 %15
  store ptr %16, ptr %7, align 8, !tbaa !183
  call void @llvm.lifetime.start.p0(i64 4, ptr %8) #14
  %17 = load i32, ptr %6, align 4, !tbaa !4
  %18 = load i32, ptr %5, align 4, !tbaa !4
  %19 = add nsw i32 %18, 1
  %20 = sub nsw i32 %17, %19
  store i32 %20, ptr %8, align 4, !tbaa !4
  %21 = load i32, ptr %8, align 4, !tbaa !4
  %22 = call i32 @llvm.abs.i32(i32 %21, i1 true)
  %23 = icmp sgt i32 %22, 131071
  br i1 %23, label %24, label %28

24:                                               ; preds = %3
  %25 = load ptr, ptr %4, align 8, !tbaa !337
  %26 = getelementptr inbounds nuw %struct.FuncState, ptr %25, i32 0, i32 3
  %27 = load ptr, ptr %26, align 8, !tbaa !339
  call void @luaX_syntaxerror(ptr noundef %27, ptr noundef @.str.150)
  br label %28

28:                                               ; preds = %24, %3
  %29 = load ptr, ptr %7, align 8, !tbaa !183
  %30 = load i32, ptr %29, align 4, !tbaa !4
  %31 = and i32 %30, 16383
  %32 = load i32, ptr %8, align 4, !tbaa !4
  %33 = add nsw i32 %32, 131071
  %34 = shl i32 %33, 14
  %35 = and i32 %34, -16384
  %36 = or i32 %31, %35
  %37 = load ptr, ptr %7, align 8, !tbaa !183
  store i32 %36, ptr %37, align 4, !tbaa !4
  call void @llvm.lifetime.end.p0(i64 4, ptr %8) #14
  call void @llvm.lifetime.end.p0(i64 8, ptr %7) #14
  ret void
}

; Function Attrs: nounwind uwtable
define internal i32 @getjump(ptr noundef %0, i32 noundef %1) #0 {
  %3 = alloca i32, align 4
  %4 = alloca ptr, align 8
  %5 = alloca i32, align 4
  %6 = alloca i32, align 4
  %7 = alloca i32, align 4
  store ptr %0, ptr %4, align 8, !tbaa !337
  store i32 %1, ptr %5, align 4, !tbaa !4
  call void @llvm.lifetime.start.p0(i64 4, ptr %6) #14
  %8 = load ptr, ptr %4, align 8, !tbaa !337
  %9 = getelementptr inbounds nuw %struct.FuncState, ptr %8, i32 0, i32 0
  %10 = load ptr, ptr %9, align 8, !tbaa !323
  %11 = getelementptr inbounds nuw %struct.Proto, ptr %10, i32 0, i32 4
  %12 = load ptr, ptr %11, align 8, !tbaa !158
  %13 = load i32, ptr %5, align 4, !tbaa !4
  %14 = sext i32 %13 to i64
  %15 = getelementptr inbounds i32, ptr %12, i64 %14
  %16 = load i32, ptr %15, align 4, !tbaa !4
  %17 = lshr i32 %16, 14
  %18 = and i32 %17, 262143
  %19 = sub nsw i32 %18, 131071
  store i32 %19, ptr %6, align 4, !tbaa !4
  %20 = load i32, ptr %6, align 4, !tbaa !4
  %21 = icmp eq i32 %20, -1
  br i1 %21, label %22, label %23

22:                                               ; preds = %2
  store i32 -1, ptr %3, align 4
  store i32 1, ptr %7, align 4
  br label %28

23:                                               ; preds = %2
  %24 = load i32, ptr %5, align 4, !tbaa !4
  %25 = add nsw i32 %24, 1
  %26 = load i32, ptr %6, align 4, !tbaa !4
  %27 = add nsw i32 %25, %26
  store i32 %27, ptr %3, align 4
  store i32 1, ptr %7, align 4
  br label %28

28:                                               ; preds = %23, %22
  call void @llvm.lifetime.end.p0(i64 4, ptr %6) #14
  %29 = load i32, ptr %3, align 4
  ret i32 %29
}

; Function Attrs: nounwind uwtable
define internal ptr @getjumpcontrol(ptr noundef %0, i32 noundef %1) #0 {
  %3 = alloca ptr, align 8
  %4 = alloca ptr, align 8
  %5 = alloca i32, align 4
  %6 = alloca ptr, align 8
  %7 = alloca i32, align 4
  store ptr %0, ptr %4, align 8, !tbaa !337
  store i32 %1, ptr %5, align 4, !tbaa !4
  call void @llvm.lifetime.start.p0(i64 8, ptr %6) #14
  %8 = load ptr, ptr %4, align 8, !tbaa !337
  %9 = getelementptr inbounds nuw %struct.FuncState, ptr %8, i32 0, i32 0
  %10 = load ptr, ptr %9, align 8, !tbaa !323
  %11 = getelementptr inbounds nuw %struct.Proto, ptr %10, i32 0, i32 4
  %12 = load ptr, ptr %11, align 8, !tbaa !158
  %13 = load i32, ptr %5, align 4, !tbaa !4
  %14 = sext i32 %13 to i64
  %15 = getelementptr inbounds i32, ptr %12, i64 %14
  store ptr %15, ptr %6, align 8, !tbaa !183
  %16 = load i32, ptr %5, align 4, !tbaa !4
  %17 = icmp sge i32 %16, 1
  br i1 %17, label %18, label %33

18:                                               ; preds = %2
  %19 = load ptr, ptr %6, align 8, !tbaa !183
  %20 = getelementptr inbounds i32, ptr %19, i64 -1
  %21 = load i32, ptr %20, align 4, !tbaa !4
  %22 = lshr i32 %21, 0
  %23 = and i32 %22, 63
  %24 = zext i32 %23 to i64
  %25 = getelementptr inbounds nuw [38 x i8], ptr @luaP_opmodes, i64 0, i64 %24
  %26 = load i8, ptr %25, align 1, !tbaa !45
  %27 = zext i8 %26 to i32
  %28 = and i32 %27, 128
  %29 = icmp ne i32 %28, 0
  br i1 %29, label %30, label %33

30:                                               ; preds = %18
  %31 = load ptr, ptr %6, align 8, !tbaa !183
  %32 = getelementptr inbounds i32, ptr %31, i64 -1
  store ptr %32, ptr %3, align 8
  store i32 1, ptr %7, align 4
  br label %35

33:                                               ; preds = %18, %2
  %34 = load ptr, ptr %6, align 8, !tbaa !183
  store ptr %34, ptr %3, align 8
  store i32 1, ptr %7, align 4
  br label %35

35:                                               ; preds = %33, %30
  call void @llvm.lifetime.end.p0(i64 8, ptr %6) #14
  %36 = load ptr, ptr %3, align 8
  ret ptr %36
}

; Function Attrs: nounwind uwtable
define internal void @luaK_patchtohere(ptr noundef %0, i32 noundef %1) #0 {
  %3 = alloca ptr, align 8
  %4 = alloca i32, align 4
  store ptr %0, ptr %3, align 8, !tbaa !337
  store i32 %1, ptr %4, align 4, !tbaa !4
  %5 = load ptr, ptr %3, align 8, !tbaa !337
  %6 = call i32 @luaK_getlabel(ptr noundef %5)
  %7 = load ptr, ptr %3, align 8, !tbaa !337
  %8 = load ptr, ptr %3, align 8, !tbaa !337
  %9 = getelementptr inbounds nuw %struct.FuncState, ptr %8, i32 0, i32 8
  %10 = load i32, ptr %4, align 4, !tbaa !4
  call void @luaK_concat(ptr noundef %7, ptr noundef %9, i32 noundef %10)
  ret void
}

; Function Attrs: nounwind uwtable
define internal void @luaK_concat(ptr noundef %0, ptr noundef %1, i32 noundef %2) #0 {
  %4 = alloca ptr, align 8
  %5 = alloca ptr, align 8
  %6 = alloca i32, align 4
  %7 = alloca i32, align 4
  %8 = alloca i32, align 4
  store ptr %0, ptr %4, align 8, !tbaa !337
  store ptr %1, ptr %5, align 8, !tbaa !183
  store i32 %2, ptr %6, align 4, !tbaa !4
  %9 = load i32, ptr %6, align 4, !tbaa !4
  %10 = icmp eq i32 %9, -1
  br i1 %10, label %11, label %12

11:                                               ; preds = %3
  br label %34

12:                                               ; preds = %3
  %13 = load ptr, ptr %5, align 8, !tbaa !183
  %14 = load i32, ptr %13, align 4, !tbaa !4
  %15 = icmp eq i32 %14, -1
  br i1 %15, label %16, label %19

16:                                               ; preds = %12
  %17 = load i32, ptr %6, align 4, !tbaa !4
  %18 = load ptr, ptr %5, align 8, !tbaa !183
  store i32 %17, ptr %18, align 4, !tbaa !4
  br label %33

19:                                               ; preds = %12
  call void @llvm.lifetime.start.p0(i64 4, ptr %7) #14
  %20 = load ptr, ptr %5, align 8, !tbaa !183
  %21 = load i32, ptr %20, align 4, !tbaa !4
  store i32 %21, ptr %7, align 4, !tbaa !4
  call void @llvm.lifetime.start.p0(i64 4, ptr %8) #14
  br label %22

22:                                               ; preds = %27, %19
  %23 = load ptr, ptr %4, align 8, !tbaa !337
  %24 = load i32, ptr %7, align 4, !tbaa !4
  %25 = call i32 @getjump(ptr noundef %23, i32 noundef %24)
  store i32 %25, ptr %8, align 4, !tbaa !4
  %26 = icmp ne i32 %25, -1
  br i1 %26, label %27, label %29

27:                                               ; preds = %22
  %28 = load i32, ptr %8, align 4, !tbaa !4
  store i32 %28, ptr %7, align 4, !tbaa !4
  br label %22, !llvm.loop !379

29:                                               ; preds = %22
  %30 = load ptr, ptr %4, align 8, !tbaa !337
  %31 = load i32, ptr %7, align 4, !tbaa !4
  %32 = load i32, ptr %6, align 4, !tbaa !4
  call void @fixjump(ptr noundef %30, i32 noundef %31, i32 noundef %32)
  call void @llvm.lifetime.end.p0(i64 4, ptr %8) #14
  call void @llvm.lifetime.end.p0(i64 4, ptr %7) #14
  br label %33

33:                                               ; preds = %29, %16
  br label %34

34:                                               ; preds = %11, %33
  ret void
}

; Function Attrs: nounwind uwtable
define internal void @invertjump(ptr noundef %0, ptr noundef %1) #0 {
  %3 = alloca ptr, align 8
  %4 = alloca ptr, align 8
  %5 = alloca ptr, align 8
  store ptr %0, ptr %3, align 8, !tbaa !337
  store ptr %1, ptr %4, align 8, !tbaa !381
  call void @llvm.lifetime.start.p0(i64 8, ptr %5) #14
  %6 = load ptr, ptr %3, align 8, !tbaa !337
  %7 = load ptr, ptr %4, align 8, !tbaa !381
  %8 = getelementptr inbounds nuw %struct.expdesc, ptr %7, i32 0, i32 1
  %9 = getelementptr inbounds nuw %struct.anon.4, ptr %8, i32 0, i32 0
  %10 = load i32, ptr %9, align 8, !tbaa !45
  %11 = call ptr @getjumpcontrol(ptr noundef %6, i32 noundef %10)
  store ptr %11, ptr %5, align 8, !tbaa !183
  %12 = load ptr, ptr %5, align 8, !tbaa !183
  %13 = load i32, ptr %12, align 4, !tbaa !4
  %14 = and i32 %13, -16321
  %15 = load ptr, ptr %5, align 8, !tbaa !183
  %16 = load i32, ptr %15, align 4, !tbaa !4
  %17 = lshr i32 %16, 6
  %18 = and i32 %17, 255
  %19 = icmp ne i32 %18, 0
  %20 = xor i1 %19, true
  %21 = zext i1 %20 to i32
  %22 = shl i32 %21, 6
  %23 = and i32 %22, 16320
  %24 = or i32 %14, %23
  %25 = load ptr, ptr %5, align 8, !tbaa !183
  store i32 %24, ptr %25, align 4, !tbaa !4
  call void @llvm.lifetime.end.p0(i64 8, ptr %5) #14
  ret void
}

; Function Attrs: nounwind uwtable
define internal void @luaK_goiftrue(ptr noundef %0, ptr noundef %1) #0 {
  %3 = alloca ptr, align 8
  %4 = alloca ptr, align 8
  %5 = alloca i32, align 4
  store ptr %0, ptr %3, align 8, !tbaa !337
  store ptr %1, ptr %4, align 8, !tbaa !381
  call void @llvm.lifetime.start.p0(i64 4, ptr %5) #14
  %6 = load ptr, ptr %3, align 8, !tbaa !337
  %7 = load ptr, ptr %4, align 8, !tbaa !381
  call void @luaK_dischargevars(ptr noundef %6, ptr noundef %7)
  %8 = load ptr, ptr %4, align 8, !tbaa !381
  %9 = getelementptr inbounds nuw %struct.expdesc, ptr %8, i32 0, i32 0
  %10 = load i32, ptr %9, align 8, !tbaa !368
  switch i32 %10, label %19 [
    i32 4, label %11
    i32 5, label %11
    i32 2, label %11
    i32 10, label %12
  ]

11:                                               ; preds = %2, %2, %2
  store i32 -1, ptr %5, align 4, !tbaa !4
  br label %23

12:                                               ; preds = %2
  %13 = load ptr, ptr %3, align 8, !tbaa !337
  %14 = load ptr, ptr %4, align 8, !tbaa !381
  call void @invertjump(ptr noundef %13, ptr noundef %14)
  %15 = load ptr, ptr %4, align 8, !tbaa !381
  %16 = getelementptr inbounds nuw %struct.expdesc, ptr %15, i32 0, i32 1
  %17 = getelementptr inbounds nuw %struct.anon.4, ptr %16, i32 0, i32 0
  %18 = load i32, ptr %17, align 8, !tbaa !45
  store i32 %18, ptr %5, align 4, !tbaa !4
  br label %23

19:                                               ; preds = %2
  %20 = load ptr, ptr %3, align 8, !tbaa !337
  %21 = load ptr, ptr %4, align 8, !tbaa !381
  %22 = call i32 @jumponcond(ptr noundef %20, ptr noundef %21, i32 noundef 0)
  store i32 %22, ptr %5, align 4, !tbaa !4
  br label %23

23:                                               ; preds = %19, %12, %11
  %24 = load ptr, ptr %3, align 8, !tbaa !337
  %25 = load ptr, ptr %4, align 8, !tbaa !381
  %26 = getelementptr inbounds nuw %struct.expdesc, ptr %25, i32 0, i32 3
  %27 = load i32, ptr %5, align 4, !tbaa !4
  call void @luaK_concat(ptr noundef %24, ptr noundef %26, i32 noundef %27)
  %28 = load ptr, ptr %3, align 8, !tbaa !337
  %29 = load ptr, ptr %4, align 8, !tbaa !381
  %30 = getelementptr inbounds nuw %struct.expdesc, ptr %29, i32 0, i32 2
  %31 = load i32, ptr %30, align 8, !tbaa !383
  call void @luaK_patchtohere(ptr noundef %28, i32 noundef %31)
  %32 = load ptr, ptr %4, align 8, !tbaa !381
  %33 = getelementptr inbounds nuw %struct.expdesc, ptr %32, i32 0, i32 2
  store i32 -1, ptr %33, align 8, !tbaa !383
  call void @llvm.lifetime.end.p0(i64 4, ptr %5) #14
  ret void
}