; Function Attrs: nounwind uwtable
define internal fastcc void @luaK_goiftrue(ptr noundef captures(none) %0, ptr noundef nonnull captures(none) %1) unnamed_addr #0 {
  tail call fastcc void @luaK_dischargevars(ptr noundef %0, ptr noundef %1)
  %3 = load i32, ptr %1, align 8, !tbaa !311
  switch i32 %3, label %24 [
    i32 4, label %luaK_concat.exit
    i32 5, label %luaK_concat.exit
    i32 2, label %luaK_concat.exit
    i32 10, label %4
  ]

4:                                                ; preds = %2
  %.val = load ptr, ptr %0, align 8, !tbaa !296
  %5 = getelementptr i8, ptr %1, i64 8
  %.val13 = load i32, ptr %5, align 8, !tbaa !46
  %6 = getelementptr i8, ptr %.val, i64 24
  %.val.val = load ptr, ptr %6, align 8, !tbaa !144
  %7 = sext i32 %.val13 to i64
  %8 = getelementptr inbounds i32, ptr %.val.val, i64 %7
  %9 = icmp sgt i32 %.val13, 0
  br i1 %9, label %10, label %17

10:                                               ; preds = %4
  %11 = getelementptr inbounds i8, ptr %8, i64 -4
  %12 = load i32, ptr %11, align 4, !tbaa !150
  %13 = and i32 %12, 63
  %14 = zext nneg i32 %13 to i64
  %15 = shl nuw i64 1, %14
  %16 = and i64 %15, 266027925503
  %.not.not.i.i = icmp eq i64 %16, 0
  br i1 %.not.not.i.i, label %invertjump.exit, label %17

17:                                               ; preds = %10, %4
  %.pre.i = load i32, ptr %8, align 4, !tbaa !150
  br label %invertjump.exit

invertjump.exit:                                  ; preds = %10, %17
  %18 = phi i32 [ %.pre.i, %17 ], [ %12, %10 ]
  %.0.i.i = phi ptr [ %8, %17 ], [ %11, %10 ]
  %19 = and i32 %18, -16321
  %20 = and i32 %18, 16320
  %.not.i = icmp eq i32 %20, 0
  %21 = select i1 %.not.i, i32 64, i32 0
  %22 = or disjoint i32 %21, %19
  store i32 %22, ptr %.0.i.i, align 4, !tbaa !150
  %23 = load i32, ptr %5, align 8, !tbaa !46
  br label %26

24:                                               ; preds = %2
  %25 = tail call fastcc i32 @jumponcond(ptr noundef %0, ptr noundef %1, i32 noundef 0)
  br label %26

26:                                               ; preds = %24, %invertjump.exit
  %.0 = phi i32 [ %25, %24 ], [ %23, %invertjump.exit ]
  %27 = getelementptr inbounds nuw i8, ptr %1, i64 20
  %28 = icmp eq i32 %.0, -1
  br i1 %28, label %luaK_concat.exit, label %29

29:                                               ; preds = %26
  %30 = load i32, ptr %27, align 4, !tbaa !150
  %31 = icmp eq i32 %30, -1
  br i1 %31, label %33, label %.preheader.i

.preheader.i:                                     ; preds = %29
  %.val.i = load ptr, ptr %0, align 8, !tbaa !296
  %32 = getelementptr i8, ptr %.val.i, i64 24
  %.val.val.i = load ptr, ptr %32, align 8, !tbaa !144
  br label %34

33:                                               ; preds = %29
  store i32 %.0, ptr %27, align 4, !tbaa !150
  br label %luaK_concat.exit

34:                                               ; preds = %34, %.preheader.i
  %.0.i = phi i32 [ %42, %34 ], [ %30, %.preheader.i ]
  %35 = sext i32 %.0.i to i64
  %36 = getelementptr inbounds i32, ptr %.val.val.i, i64 %35
  %37 = load i32, ptr %36, align 4, !tbaa !150
  %38 = lshr i32 %37, 14
  %39 = add nsw i32 %38, -131071
  %40 = icmp eq i32 %39, -1
  %41 = add nuw nsw i32 %.0.i, 1
  %42 = add nsw i32 %41, %39
  %.not13.i = icmp eq i32 %42, -1
  %.not.i14 = select i1 %40, i1 true, i1 %.not13.i
  br i1 %.not.i14, label %43, label %34, !llvm.loop !321

43:                                               ; preds = %34
  %.neg.i.i = xor i32 %.0.i, -1
  %44 = add i32 %.0, %.neg.i.i
  %45 = tail call i32 @llvm.abs.i32(i32 %44, i1 true)
  %46 = icmp samesign ugt i32 %45, 131071
  br i1 %46, label %47, label %fixjump.exit.i

47:                                               ; preds = %43
  %48 = getelementptr inbounds nuw i8, ptr %0, i64 24
  %49 = load ptr, ptr %48, align 8, !tbaa !304
  %50 = getelementptr inbounds nuw i8, ptr %49, i64 16
  %51 = load i32, ptr %50, align 8, !tbaa !301
  tail call fastcc void @luaX_lexerror(ptr noundef readonly %49, ptr noundef nonnull @.str.150, i32 noundef %51)
  unreachable

fixjump.exit.i:                                   ; preds = %43
  %52 = getelementptr inbounds i32, ptr %.val.val.i, i64 %35
  %53 = and i32 %37, 16383
  %54 = shl i32 %44, 14
  %55 = add i32 %54, 2147467264
  %56 = or disjoint i32 %55, %53
  store i32 %56, ptr %52, align 4, !tbaa !150
  br label %luaK_concat.exit

luaK_concat.exit:                                 ; preds = %2, %2, %2, %26, %33, %fixjump.exit.i
  %57 = getelementptr inbounds nuw i8, ptr %1, i64 16
  %58 = load i32, ptr %57, align 8, !tbaa !328
  %59 = getelementptr inbounds nuw i8, ptr %0, i64 48
  %60 = load i32, ptr %59, align 8, !tbaa !306
  %61 = getelementptr inbounds nuw i8, ptr %0, i64 52
  store i32 %60, ptr %61, align 4, !tbaa !307
  %62 = getelementptr inbounds nuw i8, ptr %0, i64 56
  %63 = icmp eq i32 %58, -1
  br i1 %63, label %luaK_patchtohere.exit, label %64

64:                                               ; preds = %luaK_concat.exit
  %65 = load i32, ptr %62, align 4, !tbaa !150
  %66 = icmp eq i32 %65, -1
  br i1 %66, label %68, label %.preheader.i.i

.preheader.i.i:                                   ; preds = %64
  %.val.i.i = load ptr, ptr %0, align 8, !tbaa !296
  %67 = getelementptr i8, ptr %.val.i.i, i64 24
  %.val.val.i.i = load ptr, ptr %67, align 8, !tbaa !144
  br label %69

68:                                               ; preds = %64
  store i32 %58, ptr %62, align 4, !tbaa !150
  br label %luaK_patchtohere.exit

69:                                               ; preds = %69, %.preheader.i.i
  %.0.i.i15 = phi i32 [ %77, %69 ], [ %65, %.preheader.i.i ]
  %70 = sext i32 %.0.i.i15 to i64
  %71 = getelementptr inbounds i32, ptr %.val.val.i.i, i64 %70
  %72 = load i32, ptr %71, align 4, !tbaa !150
  %73 = lshr i32 %72, 14
  %74 = add nsw i32 %73, -131071
  %75 = icmp eq i32 %74, -1
  %76 = add nuw nsw i32 %.0.i.i15, 1
  %77 = add nsw i32 %76, %74
  %.not13.i.i = icmp eq i32 %77, -1
  %.not.i.i = select i1 %75, i1 true, i1 %.not13.i.i
  br i1 %.not.i.i, label %78, label %69, !llvm.loop !321

78:                                               ; preds = %69
  %.neg.i.i.i = xor i32 %.0.i.i15, -1
  %79 = add i32 %58, %.neg.i.i.i
  %80 = tail call i32 @llvm.abs.i32(i32 %79, i1 true)
  %81 = icmp samesign ugt i32 %80, 131071
  br i1 %81, label %82, label %fixjump.exit.i.i

82:                                               ; preds = %78
  %83 = getelementptr inbounds nuw i8, ptr %0, i64 24
  %84 = load ptr, ptr %83, align 8, !tbaa !304
  %85 = getelementptr inbounds nuw i8, ptr %84, i64 16
  %86 = load i32, ptr %85, align 8, !tbaa !301
  tail call fastcc void @luaX_lexerror(ptr noundef readonly %84, ptr noundef nonnull @.str.150, i32 noundef %86)
  unreachable

fixjump.exit.i.i:                                 ; preds = %78
  %87 = getelementptr inbounds i32, ptr %.val.val.i.i, i64 %70
  %88 = and i32 %72, 16383
  %89 = shl i32 %79, 14
  %90 = add i32 %89, 2147467264
  %91 = or disjoint i32 %90, %88
  store i32 %91, ptr %87, align 4, !tbaa !150
  br label %luaK_patchtohere.exit

luaK_patchtohere.exit:                            ; preds = %luaK_concat.exit, %68, %fixjump.exit.i.i
  store i32 -1, ptr %57, align 8, !tbaa !328
  ret void
}